target datalayout = "e-m:e-p270:32:32-p271:32:32-p272:64:64-i64:64-i128:128-f80:128-n8:16:32:64-S128"
target triple = "x86_64-unknown-linux-gnu"

%struct.UText = type { i32, i32, i32, i32, i64, i32, i32, i64, i32, i32, ptr, ptr, ptr, ptr, ptr, ptr, ptr, ptr, i64, i32, i32, i64, i32, i32 }
%"class.icu_75::UObject" = type { ptr }
%"class.icu_75::CharacterIterator" = type { %"class.icu_75::ForwardCharacterIterator", i32, i32, i32, i32 }
%"class.icu_75::ForwardCharacterIterator" = type { %"class.icu_75::UObject" }

; Function Attrs: mustprogress nounwind uwtable
define linkonce_odr noundef i32 @_ZNK6icu_7517CharacterIterator8getIndexEv(ptr noundef nonnull align 8 dereferenceable(24) %this) #1 comdat align 2 {
entry:
  %this.addr = alloca ptr, align 8
  store ptr %this, ptr %this.addr, align 8
  %this1 = load ptr, ptr %this.addr, align 8
  %pos = getelementptr inbounds %"class.icu_75::CharacterIterator", ptr %this1, i32 0, i32 2
  %0 = load i32, ptr %pos, align 4
  ret i32 %0
}

; Function Attrs: mustprogress nounwind uwtable
define internal noundef i32 @_ZL8pinIndexRll(ptr noundef nonnull align 8 dereferenceable(8) %index, i64 noundef %limit) #1 {
entry:
  %index.addr = alloca ptr, align 8
  %limit.addr = alloca i64, align 8
  store ptr %index, ptr %index.addr, align 8
  store i64 %limit, ptr %limit.addr, align 8
  %0 = load ptr, ptr %index.addr, align 8
  %1 = load i64, ptr %0, align 8
  %cmp = icmp slt i64 %1, 0
  br i1 %cmp, label %if.then, label %if.else

if.then:                                          ; preds = %entry
  %2 = load ptr, ptr %index.addr, align 8
  store i64 0, ptr %2, align 8
  br label %if.end3

if.else:                                          ; preds = %entry
  %3 = load ptr, ptr %index.addr, align 8
  %4 = load i64, ptr %3, align 8
  %5 = load i64, ptr %limit.addr, align 8
  %cmp1 = icmp sgt i64 %4, %5
  br i1 %cmp1, label %if.then2, label %if.end

if.then2:                                         ; preds = %if.else
  %6 = load i64, ptr %limit.addr, align 8
  %7 = load ptr, ptr %index.addr, align 8
  store i64 %6, ptr %7, align 8
  br label %if.end

if.end:                                           ; preds = %if.then2, %if.else
  br label %if.end3

if.end3:                                          ; preds = %if.end, %if.then
  %8 = load ptr, ptr %index.addr, align 8
  %9 = load i64, ptr %8, align 8
  %conv = trunc i64 %9 to i32
  ret i32 %conv
}

; Function Attrs: mustprogress nounwind uwtable
define internal noundef signext i8 @_ZL9U_FAILURE10UErrorCode(i32 noundef %code) #1 {
entry:
  %code.addr = alloca i32, align 4
  store i32 %code, ptr %code.addr, align 4
  %0 = load i32, ptr %code.addr, align 4
  %cmp = icmp sgt i32 %0, 0
  %conv = zext i1 %cmp to i8
  ret i8 %conv
}

; Function Attrs: mustprogress uwtable
define internal noundef i32 @_ZL19charIterTextExtractP5UTextllPDsiP10UErrorCode(ptr noundef %ut, i64 noundef %start, i64 noundef %limit, ptr noundef %dest, i32 noundef %destCapacity, ptr noundef %status) #0 {
entry:
  %retval = alloca i32, align 4
  %ut.addr = alloca ptr, align 8
  %start.addr = alloca i64, align 8
  %limit.addr = alloca i64, align 8
  %dest.addr = alloca ptr, align 8
  %destCapacity.addr = alloca i32, align 4
  %status.addr = alloca ptr, align 8
  %length = alloca i32, align 4
  %start32 = alloca i32, align 4
  %limit32 = alloca i32, align 4
  %desti = alloca i32, align 4
  %srci = alloca i32, align 4
  %copyLimit = alloca i32, align 4
  %ci = alloca ptr, align 8
  %c = alloca i32, align 4
  %len = alloca i32, align 4
  store ptr %ut, ptr %ut.addr, align 8
  store i64 %start, ptr %start.addr, align 8
  store i64 %limit, ptr %limit.addr, align 8
  store ptr %dest, ptr %dest.addr, align 8
  store i32 %destCapacity, ptr %destCapacity.addr, align 4
  store ptr %status, ptr %status.addr, align 8
  %0 = load ptr, ptr %status.addr, align 8
  %1 = load i32, ptr %0, align 4
  %call = call noundef signext i8 @_ZL9U_FAILURE10UErrorCode(i32 noundef %1)
  %tobool = icmp ne i8 %call, 0
  br i1 %tobool, label %if.then, label %if.end

if.then:                                          ; preds = %entry
  store i32 0, ptr %retval, align 4
  br label %return

if.end:                                           ; preds = %entry
  %2 = load i32, ptr %destCapacity.addr, align 4
  %cmp = icmp slt i32 %2, 0
  br i1 %cmp, label %if.then5, label %lor.lhs.false

lor.lhs.false:                                    ; preds = %if.end
  %3 = load ptr, ptr %dest.addr, align 8
  %cmp1 = icmp eq ptr %3, null
  br i1 %cmp1, label %land.lhs.true, label %lor.lhs.false3

land.lhs.true:                                    ; preds = %lor.lhs.false
  %4 = load i32, ptr %destCapacity.addr, align 4
  %cmp2 = icmp sgt i32 %4, 0
  br i1 %cmp2, label %if.then5, label %lor.lhs.false3

lor.lhs.false3:                                   ; preds = %land.lhs.true, %lor.lhs.false
  %5 = load i64, ptr %start.addr, align 8
  %6 = load i64, ptr %limit.addr, align 8
  %cmp4 = icmp sgt i64 %5, %6
  br i1 %cmp4, label %if.then5, label %if.end6

if.then5:                                         ; preds = %lor.lhs.false3, %land.lhs.true, %if.end
  %7 = load ptr, ptr %status.addr, align 8
  store i32 1, ptr %7, align 4
  store i32 0, ptr %retval, align 4
  br label %return

if.end6:                                          ; preds = %lor.lhs.false3
  %8 = load ptr, ptr %ut.addr, align 8
  %a = getelementptr inbounds %struct.UText, ptr %8, i32 0, i32 18
  %9 = load i64, ptr %a, align 8
  %conv = trunc i64 %9 to i32
  store i32 %conv, ptr %length, align 4
  %10 = load i32, ptr %length, align 4
  %conv7 = sext i32 %10 to i64
  %call8 = call noundef i32 @_ZL8pinIndexRll(ptr noundef nonnull align 8 dereferenceable(8) %start.addr, i64 noundef %conv7)
  store i32 %call8, ptr %start32, align 4
  %11 = load i32, ptr %length, align 4
  %conv9 = sext i32 %11 to i64
  %call10 = call noundef i32 @_ZL8pinIndexRll(ptr noundef nonnull align 8 dereferenceable(8) %limit.addr, i64 noundef %conv9)
  store i32 %call10, ptr %limit32, align 4
  store i32 0, ptr %desti, align 4
  %12 = load ptr, ptr %ut.addr, align 8
  %context = getelementptr inbounds %struct.UText, ptr %12, i32 0, i32 13
  %13 = load ptr, ptr %context, align 8
  store ptr %13, ptr %ci, align 8
  %14 = load ptr, ptr %ci, align 8
  %15 = load i32, ptr %start32, align 4
  %vtable = load ptr, ptr %14, align 8
  %vfn = getelementptr inbounds ptr, ptr %vtable, i64 16
  %16 = load ptr, ptr %vfn, align 8
  %call11 = call noundef i32 %16(ptr noundef nonnull align 8 dereferenceable(24) %14, i32 noundef %15)
  %17 = load ptr, ptr %ci, align 8
  %call12 = call noundef i32 @_ZNK6icu_7517CharacterIterator8getIndexEv(ptr noundef nonnull align 8 dereferenceable(24) %17)
  store i32 %call12, ptr %srci, align 4
  %18 = load i32, ptr %srci, align 4
  store i32 %18, ptr %copyLimit, align 4
  br label %while.cond

while.cond:                                       ; preds = %if.end36, %if.end6
  %19 = load i32, ptr %srci, align 4
  %20 = load i32, ptr %limit32, align 4
  %cmp13 = icmp slt i32 %19, %20
  br i1 %cmp13, label %while.body, label %while.end

while.body:                                       ; preds = %while.cond
  %21 = load ptr, ptr %ci, align 8
  %vtable14 = load ptr, ptr %21, align 8
  %vfn15 = getelementptr inbounds ptr, ptr %vtable14, i64 6
  %22 = load ptr, ptr %vfn15, align 8
  %call16 = call noundef i32 %22(ptr noundef nonnull align 8 dereferenceable(8) %21)
  store i32 %call16, ptr %c, align 4
  %23 = load i32, ptr %c, align 4
  %cmp17 = icmp ule i32 %23, 65535
  %cond = select i1 %cmp17, i32 1, i32 2
  store i32 %cond, ptr %len, align 4
  %24 = load i32, ptr %desti, align 4
  %25 = load i32, ptr %len, align 4
  %add = add nsw i32 %24, %25
  %26 = load i32, ptr %destCapacity.addr, align 4
  %cmp18 = icmp sle i32 %add, %26
  br i1 %cmp18, label %if.then19, label %if.else34

if.then19:                                        ; preds = %while.body
  br label %do.body

do.body:                                          ; preds = %if.then19
  %27 = load i32, ptr %c, align 4
  %cmp20 = icmp ule i32 %27, 65535
  br i1 %cmp20, label %if.then21, label %if.else

if.then21:                                        ; preds = %do.body
  %28 = load i32, ptr %c, align 4
  %conv22 = trunc i32 %28 to i16
  %29 = load ptr, ptr %dest.addr, align 8
  %30 = load i32, ptr %desti, align 4
  %inc = add nsw i32 %30, 1
  store i32 %inc, ptr %desti, align 4
  %idxprom = sext i32 %30 to i64
  %arrayidx = getelementptr inbounds i16, ptr %29, i64 %idxprom
  store i16 %conv22, ptr %arrayidx, align 2
  br label %if.end32

if.else:                                          ; preds = %do.body
  %31 = load i32, ptr %c, align 4
  %shr = ashr i32 %31, 10
  %add23 = add nsw i32 %shr, 55232
  %conv24 = trunc i32 %add23 to i16
  %32 = load ptr, ptr %dest.addr, align 8
  %33 = load i32, ptr %desti, align 4
  %inc25 = add nsw i32 %33, 1
  store i32 %inc25, ptr %desti, align 4
  %idxprom26 = sext i32 %33 to i64
  %arrayidx27 = getelementptr inbounds i16, ptr %32, i64 %idxprom26
  store i16 %conv24, ptr %arrayidx27, align 2
  %34 = load i32, ptr %c, align 4
  %and = and i32 %34, 1023
  %or = or i32 %and, 56320
  %conv28 = trunc i32 %or to i16
  %35 = load ptr, ptr %dest.addr, align 8
  %36 = load i32, ptr %desti, align 4
  %inc29 = add nsw i32 %36, 1
  store i32 %inc29, ptr %desti, align 4
  %idxprom30 = sext i32 %36 to i64
  %arrayidx31 = getelementptr inbounds i16, ptr %35, i64 %idxprom30
  store i16 %conv28, ptr %arrayidx31, align 2
  br label %if.end32

if.end32:                                         ; preds = %if.else, %if.then21
  br label %do.end

do.end:                                           ; preds = %if.end32
  %37 = load i32, ptr %srci, align 4
  %38 = load i32, ptr %len, align 4
  %add33 = add nsw i32 %37, %38
  store i32 %add33, ptr %copyLimit, align 4
  br label %if.end36

if.else34:                                        ; preds = %while.body
  %39 = load i32, ptr %len, align 4
  %40 = load i32, ptr %desti, align 4
  %add35 = add nsw i32 %40, %39
  store i32 %add35, ptr %desti, align 4
  %41 = load ptr, ptr %status.addr, align 8
  store i32 15, ptr %41, align 4
  br label %if.end36

if.end36:                                         ; preds = %if.else34, %do.end
  %42 = load i32, ptr %len, align 4
  %43 = load i32, ptr %srci, align 4
  %add37 = add nsw i32 %43, %42
  store i32 %add37, ptr %srci, align 4
  br label %while.cond, !llvm.loop !25

while.end:                                        ; preds = %while.cond
  %44 = load ptr, ptr %ut.addr, align 8
  %45 = load i32, ptr %copyLimit, align 4
  %conv38 = sext i32 %45 to i64
  %call39 = call noundef signext i8 @_ZL18charIterTextAccessP5UTextla(ptr noundef %44, i64 noundef %conv38, i8 noundef signext 1)
  %46 = load ptr, ptr %dest.addr, align 8
  %47 = load i32, ptr %destCapacity.addr, align 4
  %48 = load i32, ptr %desti, align 4
  %49 = load ptr, ptr %status.addr, align 8
  %call40 = call i32 @u_terminateUChars_75(ptr noundef %46, i32 noundef %47, i32 noundef %48, ptr noundef %49)
  %50 = load i32, ptr %desti, align 4
  store i32 %50, ptr %retval, align 4
  br label %return

return:                                           ; preds = %while.end, %if.then5, %if.then
  %51 = load i32, ptr %retval, align 4
  ret i32 %51
}