; Function Attrs: mustprogress uwtable
define internal noundef i32 @_ZL19charIterTextExtractP5UTextllPDsiP10UErrorCode(ptr nocapture noundef %ut, i64 noundef %start, i64 noundef %limit, ptr noundef %dest, i32 noundef %destCapacity, ptr noundef %status) #0 {
entry:
  %0 = load i32, ptr %status, align 4
  %cmp.i = icmp slt i32 %0, 1
  br i1 %cmp.i, label %if.end, label %return

if.end:                                           ; preds = %entry
  %cmp = icmp slt i32 %destCapacity, 0
  br i1 %cmp, label %if.then5, label %lor.lhs.false

lor.lhs.false:                                    ; preds = %if.end
  %cmp1 = icmp eq ptr %dest, null
  %cmp2 = icmp ne i32 %destCapacity, 0
  %or.cond = and i1 %cmp1, %cmp2
  %cmp4 = icmp sgt i64 %start, %limit
  %or.cond43 = or i1 %cmp4, %or.cond
  br i1 %or.cond43, label %if.then5, label %if.end6

if.then5:                                         ; preds = %lor.lhs.false, %if.end
  store i32 1, ptr %status, align 4
  br label %return

if.end6:                                          ; preds = %lor.lhs.false
  %a = getelementptr inbounds i8, ptr %ut, i64 112
  %1 = load i64, ptr %a, align 8
  %sext = shl i64 %1, 32
  %conv7 = ashr exact i64 %sext, 32
  %cmp.i32 = icmp slt i64 %start, 0
  %spec.select = tail call i64 @llvm.smin.i64(i64 %conv7, i64 %start)
  %2 = trunc i64 %spec.select to i32
  %conv.i33 = select i1 %cmp.i32, i32 0, i32 %2
  %cmp.i34 = icmp slt i64 %limit, 0
  %spec.select44 = tail call i64 @llvm.smin.i64(i64 %conv7, i64 %limit)
  %3 = trunc i64 %spec.select44 to i32
  %conv.i37 = select i1 %cmp.i34, i32 0, i32 %3
  %context = getelementptr inbounds i8, ptr %ut, i64 72
  %4 = load ptr, ptr %context, align 8
  %vtable = load ptr, ptr %4, align 8
  %vfn = getelementptr inbounds i8, ptr %vtable, i64 128
  %5 = load ptr, ptr %vfn, align 8
  %call11 = tail call noundef i32 %5(ptr noundef nonnull align 8 dereferenceable(24) %4, i32 noundef %conv.i33)
  %pos.i = getelementptr inbounds i8, ptr %4, i64 12
  %6 = load i32, ptr %pos.i, align 4
  %cmp1345 = icmp slt i32 %6, %conv.i37
  br i1 %cmp1345, label %while.body, label %while.end

while.body:                                       ; preds = %if.end6, %if.end36
  %desti.048 = phi i32 [ %desti.2, %if.end36 ], [ 0, %if.end6 ]
  %srci.047 = phi i32 [ %add37.pre-phi, %if.end36 ], [ %6, %if.end6 ]
  %copyLimit.046 = phi i32 [ %copyLimit.1, %if.end36 ], [ %6, %if.end6 ]
  %vtable14 = load ptr, ptr %4, align 8
  %vfn15 = getelementptr inbounds i8, ptr %vtable14, i64 48
  %7 = load ptr, ptr %vfn15, align 8
  %call16 = tail call noundef i32 %7(ptr noundef nonnull align 8 dereferenceable(8) %4)
  %cmp17 = icmp ult i32 %call16, 65536
  %cond = select i1 %cmp17, i32 1, i32 2
  %add = add nsw i32 %cond, %desti.048
  %cmp18.not = icmp sgt i32 %add, %destCapacity
  br i1 %cmp18.not, label %if.else34, label %do.body

do.body:                                          ; preds = %while.body
  br i1 %cmp17, label %if.then21, label %if.else

if.then21:                                        ; preds = %do.body
  %conv22 = trunc i32 %call16 to i16
  %inc = add nsw i32 %desti.048, 1
  %idxprom = sext i32 %desti.048 to i64
  %arrayidx = getelementptr inbounds i16, ptr %dest, i64 %idxprom
  store i16 %conv22, ptr %arrayidx, align 2
  br label %do.end

if.else:                                          ; preds = %do.body
  %shr = lshr i32 %call16, 10
  %8 = trunc i32 %shr to i16
  %conv24 = add i16 %8, -10304
  %idxprom26 = sext i32 %desti.048 to i64
  %arrayidx27 = getelementptr inbounds i16, ptr %dest, i64 %idxprom26
  store i16 %conv24, ptr %arrayidx27, align 2
  %9 = trunc i32 %call16 to i16
  %10 = and i16 %9, 1023
  %conv28 = or disjoint i16 %10, -9216
  %inc29 = add nsw i32 %desti.048, 2
  %arrayidx31 = getelementptr i8, ptr %arrayidx27, i64 2
  store i16 %conv28, ptr %arrayidx31, align 2
  br label %do.end

do.end:                                           ; preds = %if.then21, %if.else
  %desti.1 = phi i32 [ %inc, %if.then21 ], [ %inc29, %if.else ]
  %add33 = add nsw i32 %cond, %srci.047
  br label %if.end36

if.else34:                                        ; preds = %while.body
  store i32 15, ptr %status, align 4
  %.pre = add nsw i32 %cond, %srci.047
  br label %if.end36

if.end36:                                         ; preds = %if.else34, %do.end
  %add37.pre-phi = phi i32 [ %.pre, %if.else34 ], [ %add33, %do.end ]
  %copyLimit.1 = phi i32 [ %copyLimit.046, %if.else34 ], [ %add33, %do.end ]
  %desti.2 = phi i32 [ %add, %if.else34 ], [ %desti.1, %do.end ]
  %cmp13 = icmp slt i32 %add37.pre-phi, %conv.i37
  br i1 %cmp13, label %while.body, label %while.end, !llvm.loop !24

while.end:                                        ; preds = %if.end36, %if.end6
  %copyLimit.0.lcssa = phi i32 [ %6, %if.end6 ], [ %copyLimit.1, %if.end36 ]
  %desti.0.lcssa = phi i32 [ 0, %if.end6 ], [ %desti.2, %if.end36 ]
  %conv38 = sext i32 %copyLimit.0.lcssa to i64
  %call39 = tail call noundef signext i8 @_ZL18charIterTextAccessP5UTextla(ptr noundef %ut, i64 noundef %conv38, i8 noundef signext 1), !range !16
  %call40 = tail call i32 @u_terminateUChars_75(ptr noundef %dest, i32 noundef %destCapacity, i32 noundef %desti.0.lcssa, ptr noundef nonnull %status)
  br label %return

return:                                           ; preds = %entry, %while.end, %if.then5
  %retval.0 = phi i32 [ 0, %if.then5 ], [ %desti.0.lcssa, %while.end ], [ 0, %entry ]
  ret i32 %retval.0
}